target datalayout = "e-m:e-p270:32:32-p271:32:32-p272:64:64-i64:64-i128:128-f80:128-n8:16:32:64-S128"
target triple = "x86_64-pc-linux-gnu"

%"struct.duckdb_zstd::ZSTD_BuildCTableWksp" = type { [53 x i16], [285 x i32] }

; Function Attrs: mustprogress nounwind uwtable
define internal noundef i32 @_ZN11duckdb_zstdL20ZSTD_useLowProbCountEm(i64 noundef %0) #3 {
  %2 = alloca i64, align 8
  store i64 %0, ptr %2, align 8, !tbaa !10
  %3 = load i64, ptr %2, align 8, !tbaa !10
  %4 = icmp uge i64 %3, 2048
  %5 = zext i1 %4 to i32
  ret i32 %5
}

; Function Attrs: mustprogress nounwind uwtable
define internal noundef i32 @_ZN11duckdb_zstdL11ERR_isErrorEm(i64 noundef %0) #3 {
  %2 = alloca i64, align 8
  store i64 %0, ptr %2, align 8, !tbaa !10
  %3 = load i64, ptr %2, align 8, !tbaa !10
  %4 = icmp ugt i64 %3, -120
  %5 = zext i1 %4 to i32
  ret i32 %5
}

; Function Attrs: mustprogress uwtable
define noundef i64 @_ZN11duckdb_zstd16ZSTD_buildCTableEPvmPjjNS_20symbolEncodingType_eES1_jPKhmPKsjjPKjmS0_m(ptr noundef %0, i64 noundef %1, ptr noundef %2, i32 noundef %3, i32 noundef %4, ptr noundef %5, i32 noundef %6, ptr noundef %7, i64 noundef %8, ptr noundef %9, i32 noundef %10, i32 noundef %11, ptr noundef %12, i64 noundef %13, ptr noundef %14, i64 noundef %15) #0 {
  %17 = alloca i64, align 8
  %18 = alloca ptr, align 8
  %19 = alloca i64, align 8
  %20 = alloca ptr, align 8
  %21 = alloca i32, align 4
  %22 = alloca i32, align 4
  %23 = alloca ptr, align 8
  %24 = alloca i32, align 4
  %25 = alloca ptr, align 8
  %26 = alloca i64, align 8
  %27 = alloca ptr, align 8
  %28 = alloca i32, align 4
  %29 = alloca i32, align 4
  %30 = alloca ptr, align 8
  %31 = alloca i64, align 8
  %32 = alloca ptr, align 8
  %33 = alloca i64, align 8
  %34 = alloca ptr, align 8
  %35 = alloca ptr, align 8
  %36 = alloca i64, align 8
  %37 = alloca i32, align 4
  %38 = alloca i64, align 8
  %39 = alloca ptr, align 8
  %40 = alloca i64, align 8
  %41 = alloca i32, align 4
  %42 = alloca i64, align 8
  %43 = alloca i64, align 8
  %44 = alloca i64, align 8
  %45 = alloca i64, align 8
  store ptr %0, ptr %18, align 8, !tbaa !17
  store i64 %1, ptr %19, align 8, !tbaa !10
  store ptr %2, ptr %20, align 8, !tbaa !3
  store i32 %3, ptr %21, align 4, !tbaa !8
  store i32 %4, ptr %22, align 4, !tbaa !34
  store ptr %5, ptr %23, align 8, !tbaa !3
  store i32 %6, ptr %24, align 4, !tbaa !8
  store ptr %7, ptr %25, align 8, !tbaa !36
  store i64 %8, ptr %26, align 8, !tbaa !10
  store ptr %9, ptr %27, align 8, !tbaa !18
  store i32 %10, ptr %28, align 4, !tbaa !8
  store i32 %11, ptr %29, align 4, !tbaa !8
  store ptr %12, ptr %30, align 8, !tbaa !3
  store i64 %13, ptr %31, align 8, !tbaa !10
  store ptr %14, ptr %32, align 8, !tbaa !17
  store i64 %15, ptr %33, align 8, !tbaa !10
  call void @llvm.lifetime.start.p0(i64 8, ptr %34) #11
  %46 = load ptr, ptr %18, align 8, !tbaa !17
  store ptr %46, ptr %34, align 8, !tbaa !36
  call void @llvm.lifetime.start.p0(i64 8, ptr %35) #11
  %47 = load ptr, ptr %34, align 8, !tbaa !36
  %48 = load i64, ptr %19, align 8, !tbaa !10
  %49 = getelementptr inbounds nuw i8, ptr %47, i64 %48
  store ptr %49, ptr %35, align 8, !tbaa !36
  br label %50

50:                                               ; preds = %16
  br label %51

51:                                               ; preds = %50
  br label %52

52:                                               ; preds = %51
  %53 = load i32, ptr %22, align 4, !tbaa !34
  switch i32 %53, label %281 [
    i32 1, label %54
    i32 3, label %106
    i32 0, label %110
    i32 2, label %142
  ]

54:                                               ; preds = %52
  br label %55

55:                                               ; preds = %54
  call void @llvm.lifetime.start.p0(i64 8, ptr %36) #11
  %56 = load ptr, ptr %20, align 8, !tbaa !3
  %57 = load i32, ptr %24, align 4, !tbaa !8
  %58 = trunc i32 %57 to i8
  %59 = call noundef i64 @_ZN11duckdb_zstd19FSE_buildCTable_rleEPjh(ptr noundef %56, i8 noundef zeroext %58)
  store i64 %59, ptr %36, align 8, !tbaa !10
  %60 = load i64, ptr %36, align 8, !tbaa !10
  %61 = call noundef i32 @_ZN11duckdb_zstdL11ERR_isErrorEm(i64 noundef %60)
  %62 = icmp ne i32 %61, 0
  br i1 %62, label %63, label %77

63:                                               ; preds = %55
  br label %64

64:                                               ; preds = %63
  br label %65

65:                                               ; preds = %64
  br label %66

66:                                               ; preds = %65
  br label %67

67:                                               ; preds = %66
  br label %68

68:                                               ; preds = %67
  br label %69

69:                                               ; preds = %68
  br label %70

70:                                               ; preds = %69
  br label %71

71:                                               ; preds = %70
  br label %72

72:                                               ; preds = %71
  br label %73

73:                                               ; preds = %72
  br label %74

74:                                               ; preds = %73
  br label %75

75:                                               ; preds = %74
  %76 = load i64, ptr %36, align 8, !tbaa !10
  store i64 %76, ptr %17, align 8
  store i32 1, ptr %37, align 4
  br label %78

77:                                               ; preds = %55
  store i32 0, ptr %37, align 4
  br label %78

78:                                               ; preds = %77, %75
  call void @llvm.lifetime.end.p0(i64 8, ptr %36) #11
  %79 = load i32, ptr %37, align 4
  switch i32 %79, label %298 [
    i32 0, label %80
  ]

80:                                               ; preds = %78
  br label %81

81:                                               ; preds = %80
  br label %82

82:                                               ; preds = %81
  br label %83

83:                                               ; preds = %82
  %84 = load i64, ptr %19, align 8, !tbaa !10
  %85 = icmp eq i64 %84, 0
  br i1 %85, label %86, label %99

86:                                               ; preds = %83
  br label %87

87:                                               ; preds = %86
  br label %88

88:                                               ; preds = %87
  br label %89

89:                                               ; preds = %88
  br label %90

90:                                               ; preds = %89
  br label %91

91:                                               ; preds = %90
  br label %92

92:                                               ; preds = %91
  br label %93

93:                                               ; preds = %92
  br label %94

94:                                               ; preds = %93
  br label %95

95:                                               ; preds = %94
  br label %96

96:                                               ; preds = %95
  br label %97

97:                                               ; preds = %96
  br label %98

98:                                               ; preds = %97
  store i64 -70, ptr %17, align 8
  store i32 1, ptr %37, align 4
  br label %298

99:                                               ; preds = %83
  br label %100

100:                                              ; preds = %99
  br label %101

101:                                              ; preds = %100
  %102 = load ptr, ptr %25, align 8, !tbaa !36
  %103 = getelementptr inbounds i8, ptr %102, i64 0
  %104 = load i8, ptr %103, align 1, !tbaa !38
  %105 = load ptr, ptr %34, align 8, !tbaa !36
  store i8 %104, ptr %105, align 1, !tbaa !38
  store i64 1, ptr %17, align 8
  store i32 1, ptr %37, align 4
  br label %298

106:                                              ; preds = %52
  %107 = load ptr, ptr %20, align 8, !tbaa !3
  %108 = load ptr, ptr %30, align 8, !tbaa !3
  %109 = load i64, ptr %31, align 8, !tbaa !10
  call void @llvm.memcpy.p0.p0.i64(ptr align 4 %107, ptr align 4 %108, i64 %109, i1 false)
  store i64 0, ptr %17, align 8
  store i32 1, ptr %37, align 4
  br label %298

110:                                              ; preds = %52
  br label %111

111:                                              ; preds = %110
  call void @llvm.lifetime.start.p0(i64 8, ptr %38) #11
  %112 = load ptr, ptr %20, align 8, !tbaa !3
  %113 = load ptr, ptr %27, align 8, !tbaa !18
  %114 = load i32, ptr %29, align 4, !tbaa !8
  %115 = load i32, ptr %28, align 4, !tbaa !8
  %116 = load ptr, ptr %32, align 8, !tbaa !17
  %117 = load i64, ptr %33, align 8, !tbaa !10
  %118 = call noundef i64 @_ZN11duckdb_zstd20FSE_buildCTable_wkspEPjPKsjjPvm(ptr noundef %112, ptr noundef %113, i32 noundef %114, i32 noundef %115, ptr noundef %116, i64 noundef %117)
  store i64 %118, ptr %38, align 8, !tbaa !10
  %119 = load i64, ptr %38, align 8, !tbaa !10
  %120 = call noundef i32 @_ZN11duckdb_zstdL11ERR_isErrorEm(i64 noundef %119)
  %121 = icmp ne i32 %120, 0
  br i1 %121, label %122, label %136

122:                                              ; preds = %111
  br label %123

123:                                              ; preds = %122
  br label %124

124:                                              ; preds = %123
  br label %125

125:                                              ; preds = %124
  br label %126

126:                                              ; preds = %125
  br label %127

127:                                              ; preds = %126
  br label %128

128:                                              ; preds = %127
  br label %129

129:                                              ; preds = %128
  br label %130

130:                                              ; preds = %129
  br label %131

131:                                              ; preds = %130
  br label %132

132:                                              ; preds = %131
  br label %133

133:                                              ; preds = %132
  br label %134

134:                                              ; preds = %133
  %135 = load i64, ptr %38, align 8, !tbaa !10
  store i64 %135, ptr %17, align 8
  store i32 1, ptr %37, align 4
  br label %137

136:                                              ; preds = %111
  store i32 0, ptr %37, align 4
  br label %137

137:                                              ; preds = %136, %134
  call void @llvm.lifetime.end.p0(i64 8, ptr %38) #11
  %138 = load i32, ptr %37, align 4
  switch i32 %138, label %298 [
    i32 0, label %139
  ]

139:                                              ; preds = %137
  br label %140

140:                                              ; preds = %139
  br label %141

141:                                              ; preds = %140
  store i64 0, ptr %17, align 8
  store i32 1, ptr %37, align 4
  br label %298

142:                                              ; preds = %52
  call void @llvm.lifetime.start.p0(i64 8, ptr %39) #11
  %143 = load ptr, ptr %32, align 8, !tbaa !17
  store ptr %143, ptr %39, align 8, !tbaa !17
  call void @llvm.lifetime.start.p0(i64 8, ptr %40) #11
  %144 = load i64, ptr %26, align 8, !tbaa !10
  store i64 %144, ptr %40, align 8, !tbaa !10
  call void @llvm.lifetime.start.p0(i64 4, ptr %41) #11
  %145 = load i32, ptr %21, align 4, !tbaa !8
  %146 = load i64, ptr %26, align 8, !tbaa !10
  %147 = load i32, ptr %24, align 4, !tbaa !8
  %148 = call noundef i32 @_ZN11duckdb_zstd19FSE_optimalTableLogEjmj(i32 noundef %145, i64 noundef %146, i32 noundef %147)
  store i32 %148, ptr %41, align 4, !tbaa !8
  %149 = load ptr, ptr %23, align 8, !tbaa !3
  %150 = load ptr, ptr %25, align 8, !tbaa !36
  %151 = load i64, ptr %26, align 8, !tbaa !10
  %152 = sub i64 %151, 1
  %153 = getelementptr inbounds nuw i8, ptr %150, i64 %152
  %154 = load i8, ptr %153, align 1, !tbaa !38
  %155 = zext i8 %154 to i64
  %156 = getelementptr inbounds nuw i32, ptr %149, i64 %155
  %157 = load i32, ptr %156, align 4, !tbaa !8
  %158 = icmp ugt i32 %157, 1
  br i1 %158, label %159, label %172

159:                                              ; preds = %142
  %160 = load ptr, ptr %23, align 8, !tbaa !3
  %161 = load ptr, ptr %25, align 8, !tbaa !36
  %162 = load i64, ptr %26, align 8, !tbaa !10
  %163 = sub i64 %162, 1
  %164 = getelementptr inbounds nuw i8, ptr %161, i64 %163
  %165 = load i8, ptr %164, align 1, !tbaa !38
  %166 = zext i8 %165 to i64
  %167 = getelementptr inbounds nuw i32, ptr %160, i64 %166
  %168 = load i32, ptr %167, align 4, !tbaa !8
  %169 = add i32 %168, -1
  store i32 %169, ptr %167, align 4, !tbaa !8
  %170 = load i64, ptr %40, align 8, !tbaa !10
  %171 = add i64 %170, -1
  store i64 %171, ptr %40, align 8, !tbaa !10
  br label %172

172:                                              ; preds = %159, %142
  br label %173

173:                                              ; preds = %172
  call void @llvm.lifetime.start.p0(i64 8, ptr %42) #11
  %174 = load ptr, ptr %39, align 8, !tbaa !17
  %175 = getelementptr inbounds nuw %"struct.duckdb_zstd::ZSTD_BuildCTableWksp", ptr %174, i32 0, i32 0
  %176 = getelementptr inbounds [53 x i16], ptr %175, i64 0, i64 0
  %177 = load i32, ptr %41, align 4, !tbaa !8
  %178 = load ptr, ptr %23, align 8, !tbaa !3
  %179 = load i64, ptr %40, align 8, !tbaa !10
  %180 = load i32, ptr %24, align 4, !tbaa !8
  %181 = load i64, ptr %40, align 8, !tbaa !10
  %182 = call noundef i32 @_ZN11duckdb_zstdL20ZSTD_useLowProbCountEm(i64 noundef %181)
  %183 = call noundef i64 @_ZN11duckdb_zstd18FSE_normalizeCountEPsjPKjmjj(ptr noundef %176, i32 noundef %177, ptr noundef %178, i64 noundef %179, i32 noundef %180, i32 noundef %182)
  store i64 %183, ptr %42, align 8, !tbaa !10
  %184 = load i64, ptr %42, align 8, !tbaa !10
  %185 = call noundef i32 @_ZN11duckdb_zstdL11ERR_isErrorEm(i64 noundef %184)
  %186 = icmp ne i32 %185, 0
  br i1 %186, label %187, label %201

187:                                              ; preds = %173
  br label %188

188:                                              ; preds = %187
  br label %189

189:                                              ; preds = %188
  br label %190

190:                                              ; preds = %189
  br label %191

191:                                              ; preds = %190
  br label %192

192:                                              ; preds = %191
  br label %193

193:                                              ; preds = %192
  br label %194

194:                                              ; preds = %193
  br label %195

195:                                              ; preds = %194
  br label %196

196:                                              ; preds = %195
  br label %197

197:                                              ; preds = %196
  br label %198

198:                                              ; preds = %197
  br label %199

199:                                              ; preds = %198
  %200 = load i64, ptr %42, align 8, !tbaa !10
  store i64 %200, ptr %17, align 8
  store i32 1, ptr %37, align 4
  br label %202

201:                                              ; preds = %173
  store i32 0, ptr %37, align 4
  br label %202

202:                                              ; preds = %201, %199
  call void @llvm.lifetime.end.p0(i64 8, ptr %42) #11
  %203 = load i32, ptr %37, align 4
  switch i32 %203, label %280 [
    i32 0, label %204
  ]

204:                                              ; preds = %202
  br label %205

205:                                              ; preds = %204
  br label %206

206:                                              ; preds = %205
  call void @llvm.lifetime.start.p0(i64 8, ptr %43) #11
  %207 = load ptr, ptr %34, align 8, !tbaa !36
  %208 = load ptr, ptr %35, align 8, !tbaa !36
  %209 = load ptr, ptr %34, align 8, !tbaa !36
  %210 = ptrtoint ptr %208 to i64
  %211 = ptrtoint ptr %209 to i64
  %212 = sub i64 %210, %211
  %213 = load ptr, ptr %39, align 8, !tbaa !17
  %214 = getelementptr inbounds nuw %"struct.duckdb_zstd::ZSTD_BuildCTableWksp", ptr %213, i32 0, i32 0
  %215 = getelementptr inbounds [53 x i16], ptr %214, i64 0, i64 0
  %216 = load i32, ptr %24, align 4, !tbaa !8
  %217 = load i32, ptr %41, align 4, !tbaa !8
  %218 = call noundef i64 @_ZN11duckdb_zstd15FSE_writeNCountEPvmPKsjj(ptr noundef %207, i64 noundef %212, ptr noundef %215, i32 noundef %216, i32 noundef %217)
  store i64 %218, ptr %43, align 8, !tbaa !10
  br label %219

219:                                              ; preds = %206
  call void @llvm.lifetime.start.p0(i64 8, ptr %44) #11
  %220 = load i64, ptr %43, align 8, !tbaa !10
  store i64 %220, ptr %44, align 8, !tbaa !10
  %221 = load i64, ptr %44, align 8, !tbaa !10
  %222 = call noundef i32 @_ZN11duckdb_zstdL11ERR_isErrorEm(i64 noundef %221)
  %223 = icmp ne i32 %222, 0
  br i1 %223, label %224, label %238

224:                                              ; preds = %219
  br label %225

225:                                              ; preds = %224
  br label %226

226:                                              ; preds = %225
  br label %227

227:                                              ; preds = %226
  br label %228

228:                                              ; preds = %227
  br label %229

229:                                              ; preds = %228
  br label %230

230:                                              ; preds = %229
  br label %231

231:                                              ; preds = %230
  br label %232

232:                                              ; preds = %231
  br label %233

233:                                              ; preds = %232
  br label %234

234:                                              ; preds = %233
  br label %235

235:                                              ; preds = %234
  br label %236

236:                                              ; preds = %235
  %237 = load i64, ptr %44, align 8, !tbaa !10
  store i64 %237, ptr %17, align 8
  store i32 1, ptr %37, align 4
  br label %239

238:                                              ; preds = %219
  store i32 0, ptr %37, align 4
  br label %239

239:                                              ; preds = %238, %236
  call void @llvm.lifetime.end.p0(i64 8, ptr %44) #11
  %240 = load i32, ptr %37, align 4
  switch i32 %240, label %279 [
    i32 0, label %241
  ]

241:                                              ; preds = %239
  br label %242

242:                                              ; preds = %241
  br label %243

243:                                              ; preds = %242
  br label %244

244:                                              ; preds = %243
  call void @llvm.lifetime.start.p0(i64 8, ptr %45) #11
  %245 = load ptr, ptr %20, align 8, !tbaa !3
  %246 = load ptr, ptr %39, align 8, !tbaa !17
  %247 = getelementptr inbounds nuw %"struct.duckdb_zstd::ZSTD_BuildCTableWksp", ptr %246, i32 0, i32 0
  %248 = getelementptr inbounds [53 x i16], ptr %247, i64 0, i64 0
  %249 = load i32, ptr %24, align 4, !tbaa !8
  %250 = load i32, ptr %41, align 4, !tbaa !8
  %251 = load ptr, ptr %39, align 8, !tbaa !17
  %252 = getelementptr inbounds nuw %"struct.duckdb_zstd::ZSTD_BuildCTableWksp", ptr %251, i32 0, i32 1
  %253 = getelementptr inbounds [285 x i32], ptr %252, i64 0, i64 0
  %254 = call noundef i64 @_ZN11duckdb_zstd20FSE_buildCTable_wkspEPjPKsjjPvm(ptr noundef %245, ptr noundef %248, i32 noundef %249, i32 noundef %250, ptr noundef %253, i64 noundef 1140)
  store i64 %254, ptr %45, align 8, !tbaa !10
  %255 = load i64, ptr %45, align 8, !tbaa !10
  %256 = call noundef i32 @_ZN11duckdb_zstdL11ERR_isErrorEm(i64 noundef %255)
  %257 = icmp ne i32 %256, 0
  br i1 %257, label %258, label %272

258:                                              ; preds = %244
  br label %259

259:                                              ; preds = %258
  br label %260

260:                                              ; preds = %259
  br label %261

261:                                              ; preds = %260
  br label %262

262:                                              ; preds = %261
  br label %263

263:                                              ; preds = %262
  br label %264

264:                                              ; preds = %263
  br label %265

265:                                              ; preds = %264
  br label %266

266:                                              ; preds = %265
  br label %267

267:                                              ; preds = %266
  br label %268

268:                                              ; preds = %267
  br label %269

269:                                              ; preds = %268
  br label %270

270:                                              ; preds = %269
  %271 = load i64, ptr %45, align 8, !tbaa !10
  store i64 %271, ptr %17, align 8
  store i32 1, ptr %37, align 4
  br label %273

272:                                              ; preds = %244
  store i32 0, ptr %37, align 4
  br label %273

273:                                              ; preds = %272, %270
  call void @llvm.lifetime.end.p0(i64 8, ptr %45) #11
  %274 = load i32, ptr %37, align 4
  switch i32 %274, label %279 [
    i32 0, label %275
  ]

275:                                              ; preds = %273
  br label %276

276:                                              ; preds = %275
  br label %277

277:                                              ; preds = %276
  %278 = load i64, ptr %43, align 8, !tbaa !10
  store i64 %278, ptr %17, align 8
  store i32 1, ptr %37, align 4
  br label %279

279:                                              ; preds = %277, %273, %239
  call void @llvm.lifetime.end.p0(i64 8, ptr %43) #11
  br label %280

280:                                              ; preds = %279, %202
  call void @llvm.lifetime.end.p0(i64 4, ptr %41) #11
  call void @llvm.lifetime.end.p0(i64 8, ptr %40) #11
  call void @llvm.lifetime.end.p0(i64 8, ptr %39) #11
  br label %298

281:                                              ; preds = %52
  br label %282

282:                                              ; preds = %281
  br label %283

283:                                              ; preds = %282
  br label %284

284:                                              ; preds = %283
  br label %285

285:                                              ; preds = %284
  br label %286

286:                                              ; preds = %285
  br label %287

287:                                              ; preds = %286
  br label %288

288:                                              ; preds = %287
  br label %289

289:                                              ; preds = %288
  br label %290

290:                                              ; preds = %289
  br label %291

291:                                              ; preds = %290
  br label %292

292:                                              ; preds = %291
  br label %293

293:                                              ; preds = %292
  br label %294

294:                                              ; preds = %293
  store i64 -1, ptr %17, align 8
  store i32 1, ptr %37, align 4
  br label %298

295:                                              ; No predecessors!
  br label %296

296:                                              ; preds = %295
  br label %297

297:                                              ; preds = %296
  unreachable

298:                                              ; preds = %294, %280, %141, %137, %106, %101, %98, %78
  call void @llvm.lifetime.end.p0(i64 8, ptr %35) #11
  call void @llvm.lifetime.end.p0(i64 8, ptr %34) #11
  %299 = load i64, ptr %17, align 8
  ret i64 %299
}