; Function Attrs: mustprogress uwtable
define noundef i64 @_ZN11duckdb_zstd16ZSTD_buildCTableEPvmPjjNS_20symbolEncodingType_eES1_jPKhmPKsjjPKjmS0_m(ptr noundef %0, i64 noundef %1, ptr noundef %2, i32 noundef %3, i32 noundef %4, ptr noundef %5, i32 noundef %6, ptr noundef readonly captures(none) %7, i64 noundef %8, ptr noundef %9, i32 noundef %10, i32 noundef %11, ptr noundef readonly captures(none) %12, i64 noundef %13, ptr noundef %14, i64 noundef %15) local_unnamed_addr #2 {
  switch i32 %4, label %53 [
    i32 1, label %17
    i32 3, label %25
    i32 0, label %26
    i32 2, label %29
  ]

17:                                               ; preds = %16
  %18 = trunc i32 %6 to i8
  %19 = tail call noundef i64 @_ZN11duckdb_zstd19FSE_buildCTable_rleEPjh(ptr noundef %2, i8 noundef zeroext %18)
  %20 = icmp ult i64 %19, -119
  br i1 %20, label %21, label %53

21:                                               ; preds = %17
  %22 = icmp eq i64 %1, 0
  br i1 %22, label %53, label %23

23:                                               ; preds = %21
  %24 = load i8, ptr %7, align 1, !tbaa !17
  store i8 %24, ptr %0, align 1, !tbaa !17
  br label %53

25:                                               ; preds = %16
  tail call void @llvm.memcpy.p0.p0.i64(ptr align 4 %2, ptr align 4 %12, i64 %13, i1 false)
  br label %53

26:                                               ; preds = %16
  %27 = tail call noundef i64 @_ZN11duckdb_zstd20FSE_buildCTable_wkspEPjPKsjjPvm(ptr noundef %2, ptr noundef %9, i32 noundef %11, i32 noundef %10, ptr noundef %14, i64 noundef %15)
  %28 = icmp ult i64 %27, -119
  %spec.select = select i1 %28, i64 0, i64 %27
  br label %53

29:                                               ; preds = %16
  %30 = tail call noundef i32 @_ZN11duckdb_zstd19FSE_optimalTableLogEjmj(i32 noundef %3, i64 noundef %8, i32 noundef %6)
  %31 = getelementptr i8, ptr %7, i64 %8
  %32 = getelementptr i8, ptr %31, i64 -1
  %33 = load i8, ptr %32, align 1, !tbaa !17
  %34 = zext i8 %33 to i64
  %35 = getelementptr inbounds nuw i32, ptr %5, i64 %34
  %36 = load i32, ptr %35, align 4, !tbaa !10
  %37 = icmp ugt i32 %36, 1
  br i1 %37, label %38, label %41

38:                                               ; preds = %29
  %39 = add i32 %36, -1
  store i32 %39, ptr %35, align 4, !tbaa !10
  %40 = add i64 %8, -1
  br label %41

41:                                               ; preds = %29, %38
  %.073 = phi i64 [ %40, %38 ], [ %8, %29 ]
  %42 = icmp ugt i64 %.073, 2047
  %43 = zext i1 %42 to i32
  %44 = tail call noundef i64 @_ZN11duckdb_zstd18FSE_normalizeCountEPsjPKjmjj(ptr noundef %14, i32 noundef %30, ptr noundef nonnull %5, i64 noundef %.073, i32 noundef %6, i32 noundef %43)
  %45 = icmp ult i64 %44, -119
  br i1 %45, label %46, label %53

46:                                               ; preds = %41
  %47 = tail call noundef i64 @_ZN11duckdb_zstd15FSE_writeNCountEPvmPKsjj(ptr noundef %0, i64 noundef %1, ptr noundef %14, i32 noundef %6, i32 noundef %30)
  %48 = icmp ult i64 %47, -119
  br i1 %48, label %49, label %53

49:                                               ; preds = %46
  %50 = getelementptr inbounds nuw i8, ptr %14, i64 108
  %51 = tail call noundef i64 @_ZN11duckdb_zstd20FSE_buildCTable_wkspEPjPKsjjPvm(ptr noundef %2, ptr noundef %14, i32 noundef %6, i32 noundef %30, ptr noundef nonnull %50, i64 noundef 1140)
  %52 = icmp ult i64 %51, -119
  %spec.select78 = select i1 %52, i64 %47, i64 %51
  br label %53

53:                                               ; preds = %49, %26, %16, %41, %46, %21, %17, %25, %23
  %.1 = phi i64 [ 0, %25 ], [ 1, %23 ], [ %19, %17 ], [ -70, %21 ], [ %44, %41 ], [ %47, %46 ], [ -1, %16 ], [ %spec.select, %26 ], [ %spec.select78, %49 ]
  ret i64 %.1
}